(dp0
S'a=0.9, g=0.5'
p1
I269
sS'a=0.7, g=0.8'
p2
I255
sS'a=0.3, g=0.5'
p3
I246
sS'a=0.9, g=0.4'
p4
I258
sS'a=0.6, g=0.8'
p5
I266
sS'a=0.2, g=0.7'
p6
I239
sS'a=0.3, g=0.3'
p7
I271
sS'a=0.3, g=0.2'
p8
I270
sS'a=0.3, g=0.1'
p9
I269
sS'a=0.2, g=0.3'
p10
I257
sS'a=0.2, g=0.4'
p11
I264
sS'a=0.2, g=0.5'
p12
I286
sS'a=0.2, g=0.6'
p13
I275
sS'a=0.3, g=0.4'
p14
I258
sS'a=0.2, g=0.8'
p15
I262
sS'a=0.2, g=0.9'
p16
I260
sS'a=0.3, g=0.9'
p17
I268
sS'a=0.3, g=0.8'
p18
I275
sS'a=0.6, g=0.4'
p19
I244
sS'a=0.6, g=0.5'
p20
I267
sS'a=0.6, g=0.6'
p21
I269
sS'a=0.6, g=0.7'
p22
I267
sS'a=0.1, g=0.9'
p23
I279
sS'a=0.1, g=0.8'
p24
I264
sS'a=0.6, g=0.2'
p25
I252
sS'a=0.6, g=0.3'
p26
I257
sS'a=0.1, g=0.5'
p27
I277
sS'a=0.1, g=0.4'
p28
I258
sS'a=0.1, g=0.7'
p29
I258
sS'a=0.1, g=0.6'
p30
I268
sS'a=0.1, g=0.1'
p31
I272
sS'a=0.6, g=0.9'
p32
I255
sS'a=0.1, g=0.3'
p33
I251
sS'a=0.1, g=0.2'
p34
I267
sS'a=0.8, g=0.2'
p35
I273
sS'a=0.8, g=0.1'
p36
I264
sS'a=0.7, g=0.4'
p37
I249
sS'a=0.8, g=0.6'
p38
I254
sS'a=0.8, g=0.7'
p39
I289
sS'a=0.8, g=0.4'
p40
I283
sS'a=0.8, g=0.5'
p41
I271
sS'a=0.7, g=0.3'
p42
I252
sS'a=0.8, g=0.8'
p43
I261
sS'a=0.8, g=0.9'
p44
I281
sS'a=0.7, g=0.2'
p45
I243
sS'a=0.9, g=0.2'
p46
I254
sS'a=0.7, g=0.7'
p47
I270
sS'a=0.9, g=0.7'
p48
I274
sS'a=0.9, g=0.6'
p49
I276
sS'a=0.9, g=0.1'
p50
I275
sS'a=0.5, g=0.7'
p51
I262
sS'a=0.9, g=0.3'
p52
I275
sS'a=0.8, g=0.3'
p53
I267
sS'a=0.5, g=0.6'
p54
I256
sS'a=0.9, g=0.9'
p55
I296
sS'a=0.9, g=0.8'
p56
I263
sS'a=0.5, g=0.9'
p57
I270
sS'a=0.7, g=0.1'
p58
I286
sS'a=0.4, g=0.7'
p59
I294
sS'a=0.5, g=0.8'
p60
I256
sS'a=0.6, g=0.1'
p61
I244
sS'a=0.4, g=0.5'
p62
I275
sS'a=0.7, g=0.5'
p63
I285
sS'a=0.2, g=0.1'
p64
I269
sS'a=0.2, g=0.2'
p65
I254
sS'a=0.5, g=0.1'
p66
I248
sS'a=0.7, g=0.6'
p67
I264
sS'a=0.5, g=0.3'
p68
I254
sS'a=0.5, g=0.2'
p69
I269
sS'a=0.5, g=0.5'
p70
I275
sS'a=0.5, g=0.4'
p71
I265
sS'a=0.4, g=0.8'
p72
I258
sS'a=0.4, g=0.9'
p73
I277
sS'a=0.4, g=0.6'
p74
I255
sS'a=0.3, g=0.7'
p75
I272
sS'a=0.4, g=0.4'
p76
I282
sS'a=0.4, g=0.1'
p77
I260
sS'a=0.4, g=0.2'
p78
I274
sS'a=0.4, g=0.3'
p79
I254
sS'a=0.7, g=0.9'
p80
I294
sS'a=0.3, g=0.6'
p81
I283
s.