(dp0
S'a=0.9, g=0.5'
p1
I93
sS'a=0.7, g=0.8'
p2
I82
sS'a=0.3, g=0.5'
p3
I76
sS'a=0.9, g=0.4'
p4
I82
sS'a=0.6, g=0.8'
p5
I78
sS'a=0.2, g=0.7'
p6
I73
sS'a=0.3, g=0.3'
p7
I90
sS'a=0.3, g=0.2'
p8
I63
sS'a=0.3, g=0.1'
p9
I79
sS'a=0.2, g=0.3'
p10
I79
sS'a=0.2, g=0.4'
p11
I80
sS'a=0.2, g=0.5'
p12
I69
sS'a=0.2, g=0.6'
p13
I75
sS'a=0.3, g=0.4'
p14
I83
sS'a=0.2, g=0.8'
p15
I85
sS'a=0.2, g=0.9'
p16
I72
sS'a=0.3, g=0.9'
p17
I84
sS'a=0.3, g=0.8'
p18
I74
sS'a=0.6, g=0.4'
p19
I77
sS'a=0.6, g=0.5'
p20
I80
sS'a=0.6, g=0.6'
p21
I81
sS'a=0.6, g=0.7'
p22
I78
sS'a=0.1, g=0.9'
p23
I78
sS'a=0.1, g=0.8'
p24
I86
sS'a=0.6, g=0.2'
p25
I77
sS'a=0.6, g=0.3'
p26
I86
sS'a=0.1, g=0.5'
p27
I75
sS'a=0.1, g=0.4'
p28
I77
sS'a=0.1, g=0.7'
p29
I78
sS'a=0.1, g=0.6'
p30
I81
sS'a=0.1, g=0.1'
p31
I77
sS'a=0.6, g=0.9'
p32
I77
sS'a=0.1, g=0.3'
p33
I84
sS'a=0.1, g=0.2'
p34
I69
sS'a=0.8, g=0.2'
p35
I85
sS'a=0.8, g=0.1'
p36
I82
sS'a=0.7, g=0.4'
p37
I81
sS'a=0.8, g=0.6'
p38
I70
sS'a=0.8, g=0.7'
p39
I89
sS'a=0.8, g=0.4'
p40
I69
sS'a=0.8, g=0.5'
p41
I76
sS'a=0.7, g=0.3'
p42
I82
sS'a=0.8, g=0.8'
p43
I80
sS'a=0.8, g=0.9'
p44
I82
sS'a=0.7, g=0.2'
p45
I80
sS'a=0.9, g=0.2'
p46
I76
sS'a=0.7, g=0.7'
p47
I92
sS'a=0.9, g=0.7'
p48
I87
sS'a=0.9, g=0.6'
p49
I89
sS'a=0.9, g=0.1'
p50
I79
sS'a=0.5, g=0.7'
p51
I77
sS'a=0.9, g=0.3'
p52
I74
sS'a=0.8, g=0.3'
p53
I86
sS'a=0.5, g=0.6'
p54
I90
sS'a=0.9, g=0.9'
p55
I81
sS'a=0.9, g=0.8'
p56
I105
sS'a=0.5, g=0.9'
p57
I74
sS'a=0.7, g=0.1'
p58
I84
sS'a=0.4, g=0.7'
p59
I83
sS'a=0.5, g=0.8'
p60
I71
sS'a=0.6, g=0.1'
p61
I71
sS'a=0.4, g=0.5'
p62
I78
sS'a=0.7, g=0.5'
p63
I76
sS'a=0.2, g=0.1'
p64
I74
sS'a=0.2, g=0.2'
p65
I69
sS'a=0.5, g=0.1'
p66
I76
sS'a=0.7, g=0.6'
p67
I74
sS'a=0.5, g=0.3'
p68
I81
sS'a=0.5, g=0.2'
p69
I82
sS'a=0.5, g=0.5'
p70
I81
sS'a=0.5, g=0.4'
p71
I75
sS'a=0.4, g=0.8'
p72
I74
sS'a=0.4, g=0.9'
p73
I68
sS'a=0.4, g=0.6'
p74
I72
sS'a=0.3, g=0.7'
p75
I87
sS'a=0.4, g=0.4'
p76
I70
sS'a=0.4, g=0.1'
p77
I85
sS'a=0.4, g=0.2'
p78
I74
sS'a=0.4, g=0.3'
p79
I80
sS'a=0.7, g=0.9'
p80
I91
sS'a=0.3, g=0.6'
p81
I79
s.