(dp0
S'a=0.9, g=0.5'
p1
F-91.5
sS'a=0.7, g=0.8'
p2
F-117.0
sS'a=0.3, g=0.5'
p3
F-82.5
sS'a=0.9, g=0.4'
p4
F-93.0
sS'a=0.6, g=0.8'
p5
F-88.5
sS'a=0.2, g=0.7'
p6
F-87.0
sS'a=0.3, g=0.3'
p7
F-92.0
sS'a=0.3, g=0.2'
p8
F-79.0
sS'a=0.3, g=0.1'
p9
F-79.5
sS'a=0.2, g=0.3'
p10
F-89.0
sS'a=0.2, g=0.4'
p11
F-95.5
sS'a=0.2, g=0.5'
p12
F-78.0
sS'a=0.2, g=0.6'
p13
F-94.5
sS'a=0.3, g=0.4'
p14
F-98.0
sS'a=0.2, g=0.8'
p15
F-99.0
sS'a=0.2, g=0.9'
p16
F-84.5
sS'a=0.3, g=0.9'
p17
F-88.5
sS'a=0.3, g=0.8'
p18
F-86.5
sS'a=0.6, g=0.4'
p19
F-84.0
sS'a=0.6, g=0.5'
p20
F-91.5
sS'a=0.6, g=0.6'
p21
F-85.0
sS'a=0.6, g=0.7'
p22
F-88.5
sS'a=0.1, g=0.9'
p23
F-81.5
sS'a=0.1, g=0.8'
p24
F-97.5
sS'a=0.6, g=0.2'
p25
F-100.0
sS'a=0.6, g=0.3'
p26
F-99.0
sS'a=0.1, g=0.5'
p27
F-87.5
sS'a=0.1, g=0.4'
p28
F-92.5
sS'a=0.1, g=0.7'
p29
F-85.0
sS'a=0.1, g=0.6'
p30
F-82.5
sS'a=0.1, g=0.1'
p31
F-86.5
sS'a=0.6, g=0.9'
p32
F-81.5
sS'a=0.1, g=0.3'
p33
F-99.5
sS'a=0.1, g=0.2'
p34
F-83.5
sS'a=0.8, g=0.2'
p35
F-100.5
sS'a=0.8, g=0.1'
p36
F-76.5
sS'a=0.7, g=0.4'
p37
F-81.0
sS'a=0.8, g=0.6'
p38
F-82.5
sS'a=0.8, g=0.7'
p39
F-90.5
sS'a=0.8, g=0.4'
p40
F-89.5
sS'a=0.8, g=0.5'
p41
F-82.0
sS'a=0.7, g=0.3'
p42
F-96.5
sS'a=0.8, g=0.8'
p43
F-86.5
sS'a=0.8, g=0.9'
p44
F-94.0
sS'a=0.7, g=0.2'
p45
F-90.0
sS'a=0.9, g=0.2'
p46
F-86.5
sS'a=0.7, g=0.7'
p47
F-91.0
sS'a=0.9, g=0.7'
p48
F-95.5
sS'a=0.9, g=0.6'
p49
F-90.0
sS'a=0.9, g=0.1'
p50
F-89.5
sS'a=0.5, g=0.7'
p51
F-98.5
sS'a=0.9, g=0.3'
p52
F-82.5
sS'a=0.8, g=0.3'
p53
F-81.0
sS'a=0.5, g=0.6'
p54
F-101.0
sS'a=0.9, g=0.9'
p55
F-93.0
sS'a=0.9, g=0.8'
p56
F-110.5
sS'a=0.5, g=0.9'
p57
F-105.0
sS'a=0.7, g=0.1'
p58
F-89.0
sS'a=0.4, g=0.7'
p59
F-88.0
sS'a=0.5, g=0.8'
p60
F-81.0
sS'a=0.6, g=0.1'
p61
F-79.5
sS'a=0.4, g=0.5'
p62
F-85.5
sS'a=0.7, g=0.5'
p63
F-86.5
sS'a=0.2, g=0.1'
p64
F-80.5
sS'a=0.2, g=0.2'
p65
F-79.5
sS'a=0.5, g=0.1'
p66
F-89.5
sS'a=0.7, g=0.6'
p67
F-82.5
sS'a=0.5, g=0.3'
p68
F-93.5
sS'a=0.5, g=0.2'
p69
F-97.0
sS'a=0.5, g=0.5'
p70
F-81.0
sS'a=0.5, g=0.4'
p71
F-90.5
sS'a=0.4, g=0.8'
p72
F-73.5
sS'a=0.4, g=0.9'
p73
F-73.5
sS'a=0.4, g=0.6'
p74
F-81.0
sS'a=0.3, g=0.7'
p75
F-95.5
sS'a=0.4, g=0.4'
p76
F-86.5
sS'a=0.4, g=0.1'
p77
F-86.5
sS'a=0.4, g=0.2'
p78
F-80.0
sS'a=0.4, g=0.3'
p79
F-92.5
sS'a=0.7, g=0.9'
p80
F-94.0
sS'a=0.3, g=0.6'
p81
F-88.0
s.