(dp0
S'a=0.9, g=0.5'
p1
F-281.5
sS'a=0.7, g=0.8'
p2
F-352.0
sS'a=0.3, g=0.5'
p3
F-291.0
sS'a=0.9, g=0.4'
p4
F-291.5
sS'a=0.6, g=0.8'
p5
F-304.0
sS'a=0.2, g=0.7'
p6
F-284.5
sS'a=0.3, g=0.3'
p7
F-294.5
sS'a=0.3, g=0.2'
p8
F-293.5
sS'a=0.3, g=0.1'
p9
F-301.0
sS'a=0.2, g=0.3'
p10
F-281.0
sS'a=0.2, g=0.4'
p11
F-303.5
sS'a=0.2, g=0.5'
p12
F-316.0
sS'a=0.2, g=0.6'
p13
F-304.5
sS'a=0.3, g=0.4'
p14
F-298.5
sS'a=0.2, g=0.8'
p15
F-298.5
sS'a=0.2, g=0.9'
p16
F-289.5
sS'a=0.3, g=0.9'
p17
F-302.5
sS'a=0.3, g=0.8'
p18
F-310.0
sS'a=0.6, g=0.4'
p19
F-295.5
sS'a=0.6, g=0.5'
p20
F-320.5
sS'a=0.6, g=0.6'
p21
F-325.0
sS'a=0.6, g=0.7'
p22
F-279.0
sS'a=0.1, g=0.9'
p23
F-302.5
sS'a=0.1, g=0.8'
p24
F-287.0
sS'a=0.6, g=0.2'
p25
F-272.0
sS'a=0.6, g=0.3'
p26
F-283.0
sS'a=0.1, g=0.5'
p27
F-287.5
sS'a=0.1, g=0.4'
p28
F-297.5
sS'a=0.1, g=0.7'
p29
F-291.5
sS'a=0.1, g=0.6'
p30
F-284.0
sS'a=0.1, g=0.1'
p31
F-307.5
sS'a=0.6, g=0.9'
p32
F-311.5
sS'a=0.1, g=0.3'
p33
F-275.5
sS'a=0.1, g=0.2'
p34
F-327.0
sS'a=0.8, g=0.2'
p35
F-291.0
sS'a=0.8, g=0.1'
p36
F-298.0
sS'a=0.7, g=0.4'
p37
F-296.0
sS'a=0.8, g=0.6'
p38
F-269.0
sS'a=0.8, g=0.7'
p39
F-311.0
sS'a=0.8, g=0.4'
p40
F-300.0
sS'a=0.8, g=0.5'
p41
F-319.5
sS'a=0.7, g=0.3'
p42
F-263.0
sS'a=0.8, g=0.8'
p43
F-292.5
sS'a=0.8, g=0.9'
p44
F-309.0
sS'a=0.7, g=0.2'
p45
F-263.5
sS'a=0.9, g=0.2'
p46
F-269.5
sS'a=0.7, g=0.7'
p47
F-297.5
sS'a=0.9, g=0.7'
p48
F-310.5
sS'a=0.9, g=0.6'
p49
F-297.5
sS'a=0.9, g=0.1'
p50
F-294.5
sS'a=0.5, g=0.7'
p51
F-287.5
sS'a=0.9, g=0.3'
p52
F-307.5
sS'a=0.8, g=0.3'
p53
F-324.5
sS'a=0.5, g=0.6'
p54
F-297.0
sS'a=0.9, g=0.9'
p55
F-314.5
sS'a=0.9, g=0.8'
p56
F-281.5
sS'a=0.5, g=0.9'
p57
F-290.0
sS'a=0.7, g=0.1'
p58
F-303.5
sS'a=0.4, g=0.7'
p59
F-349.5
sS'a=0.5, g=0.8'
p60
F-293.0
sS'a=0.6, g=0.1'
p61
F-293.5
sS'a=0.4, g=0.5'
p62
F-284.5
sS'a=0.7, g=0.5'
p63
F-301.0
sS'a=0.2, g=0.1'
p64
F-290.5
sS'a=0.2, g=0.2'
p65
F-301.0
sS'a=0.5, g=0.1'
p66
F-295.0
sS'a=0.7, g=0.6'
p67
F-300.5
sS'a=0.5, g=0.3'
p68
F-294.5
sS'a=0.5, g=0.2'
p69
F-308.5
sS'a=0.5, g=0.5'
p70
F-297.5
sS'a=0.5, g=0.4'
p71
F-288.0
sS'a=0.4, g=0.8'
p72
F-287.5
sS'a=0.4, g=0.9'
p73
F-294.0
sS'a=0.4, g=0.6'
p74
F-273.5
sS'a=0.3, g=0.7'
p75
F-310.0
sS'a=0.4, g=0.4'
p76
F-290.5
sS'a=0.4, g=0.1'
p77
F-299.0
sS'a=0.4, g=0.2'
p78
F-299.5
sS'a=0.4, g=0.3'
p79
F-266.0
sS'a=0.7, g=0.9'
p80
F-323.5
sS'a=0.3, g=0.6'
p81
F-302.0
s.