(dp0
S'a=0.9, g=0.5'
p1
F6566.5
sS'a=0.7, g=0.8'
p2
F6618.5
sS'a=0.3, g=0.5'
p3
F6576.0
sS'a=0.9, g=0.4'
p4
F6615.0
sS'a=0.6, g=0.8'
p5
F6733.5
sS'a=0.2, g=0.7'
p6
F6608.5
sS'a=0.3, g=0.3'
p7
F6591.0
sS'a=0.3, g=0.2'
p8
F6613.0
sS'a=0.3, g=0.1'
p9
F6623.5
sS'a=0.2, g=0.3'
p10
F6604.5
sS'a=0.2, g=0.4'
p11
F6538.5
sS'a=0.2, g=0.5'
p12
F6585.5
sS'a=0.2, g=0.6'
p13
F6547.5
sS'a=0.3, g=0.4'
p14
F6650.0
sS'a=0.2, g=0.8'
p15
F6685.0
sS'a=0.2, g=0.9'
p16
F6559.5
sS'a=0.3, g=0.9'
p17
F6604.5
sS'a=0.3, g=0.8'
p18
F6599.0
sS'a=0.6, g=0.4'
p19
F6657.5
sS'a=0.6, g=0.5'
p20
F6762.5
sS'a=0.6, g=0.6'
p21
F6620.5
sS'a=0.6, g=0.7'
p22
F6531.0
sS'a=0.1, g=0.9'
p23
F6714.5
sS'a=0.1, g=0.8'
p24
F6652.0
sS'a=0.6, g=0.2'
p25
F6615.0
sS'a=0.6, g=0.3'
p26
F6629.0
sS'a=0.1, g=0.5'
p27
F6608.5
sS'a=0.1, g=0.4'
p28
F6549.0
sS'a=0.1, g=0.7'
p29
F6596.5
sS'a=0.1, g=0.6'
p30
F6581.5
sS'a=0.1, g=0.1'
p31
F6464.5
sS'a=0.6, g=0.9'
p32
F6651.5
sS'a=0.1, g=0.3'
p33
F6692.5
sS'a=0.1, g=0.2'
p34
F6536.0
sS'a=0.8, g=0.2'
p35
F6705.5
sS'a=0.8, g=0.1'
p36
F6737.0
sS'a=0.7, g=0.4'
p37
F6746.5
sS'a=0.8, g=0.6'
p38
F6535.5
sS'a=0.8, g=0.7'
p39
F6611.0
sS'a=0.8, g=0.4'
p40
F6626.0
sS'a=0.8, g=0.5'
p41
F6555.5
sS'a=0.7, g=0.3'
p42
F6609.0
sS'a=0.8, g=0.8'
p43
F6703.0
sS'a=0.8, g=0.9'
p44
F6654.0
sS'a=0.7, g=0.2'
p45
F6669.5
sS'a=0.9, g=0.2'
p46
F6791.5
sS'a=0.7, g=0.7'
p47
F6721.0
sS'a=0.9, g=0.7'
p48
F6650.0
sS'a=0.9, g=0.6'
p49
F6652.0
sS'a=0.9, g=0.1'
p50
F6666.5
sS'a=0.5, g=0.7'
p51
F6583.0
sS'a=0.9, g=0.3'
p52
F6637.0
sS'a=0.8, g=0.3'
p53
F6687.5
sS'a=0.5, g=0.6'
p54
F6582.5
sS'a=0.9, g=0.9'
p55
F6600.5
sS'a=0.9, g=0.8'
p56
F6533.0
sS'a=0.5, g=0.9'
p57
F6608.5
sS'a=0.7, g=0.1'
p58
F6724.5
sS'a=0.4, g=0.7'
p59
F6609.5
sS'a=0.5, g=0.8'
p60
F6551.0
sS'a=0.6, g=0.1'
p61
F6656.5
sS'a=0.4, g=0.5'
p62
F6554.5
sS'a=0.7, g=0.5'
p63
F6587.5
sS'a=0.2, g=0.1'
p64
F6621.0
sS'a=0.2, g=0.2'
p65
F6626.0
sS'a=0.5, g=0.1'
p66
F6583.5
sS'a=0.7, g=0.6'
p67
F6581.0
sS'a=0.5, g=0.3'
p68
F6550.0
sS'a=0.5, g=0.2'
p69
F6765.0
sS'a=0.5, g=0.5'
p70
F6728.5
sS'a=0.5, g=0.4'
p71
F6633.5
sS'a=0.4, g=0.8'
p72
F6707.5
sS'a=0.4, g=0.9'
p73
F6640.5
sS'a=0.4, g=0.6'
p74
F6568.5
sS'a=0.3, g=0.7'
p75
F6613.5
sS'a=0.4, g=0.4'
p76
F6557.5
sS'a=0.4, g=0.1'
p77
F6883.5
sS'a=0.4, g=0.2'
p78
F6532.0
sS'a=0.4, g=0.3'
p79
F6621.5
sS'a=0.7, g=0.9'
p80
F6527.0
sS'a=0.3, g=0.6'
p81
F6563.5
s.