(dp0
S'a=0.9, g=0.5'
p1
F22074.5
sS'a=0.7, g=0.8'
p2
F22135.0
sS'a=0.3, g=0.5'
p3
F22008.5
sS'a=0.9, g=0.4'
p4
F22077.5
sS'a=0.6, g=0.8'
p5
F22479.0
sS'a=0.2, g=0.7'
p6
F22192.0
sS'a=0.3, g=0.3'
p7
F22367.0
sS'a=0.3, g=0.2'
p8
F22116.0
sS'a=0.3, g=0.1'
p9
F22194.5
sS'a=0.2, g=0.3'
p10
F21826.5
sS'a=0.2, g=0.4'
p11
F22131.0
sS'a=0.2, g=0.5'
p12
F22075.5
sS'a=0.2, g=0.6'
p13
F22057.0
sS'a=0.3, g=0.4'
p14
F22235.5
sS'a=0.2, g=0.8'
p15
F22107.0
sS'a=0.2, g=0.9'
p16
F21968.5
sS'a=0.3, g=0.9'
p17
F22321.0
sS'a=0.3, g=0.8'
p18
F21703.0
sS'a=0.6, g=0.4'
p19
F22204.0
sS'a=0.6, g=0.5'
p20
F22021.5
sS'a=0.6, g=0.6'
p21
F22110.0
sS'a=0.6, g=0.7'
p22
F22139.5
sS'a=0.1, g=0.9'
p23
F22166.5
sS'a=0.1, g=0.8'
p24
F22011.0
sS'a=0.6, g=0.2'
p25
F22359.5
sS'a=0.6, g=0.3'
p26
F21946.5
sS'a=0.1, g=0.5'
p27
F21977.5
sS'a=0.1, g=0.4'
p28
F22286.0
sS'a=0.1, g=0.7'
p29
F22016.0
sS'a=0.1, g=0.6'
p30
F22197.5
sS'a=0.1, g=0.1'
p31
F22031.5
sS'a=0.6, g=0.9'
p32
F22049.5
sS'a=0.1, g=0.3'
p33
F21859.5
sS'a=0.1, g=0.2'
p34
F22029.5
sS'a=0.8, g=0.2'
p35
F22047.5
sS'a=0.8, g=0.1'
p36
F22051.5
sS'a=0.7, g=0.4'
p37
F21889.0
sS'a=0.8, g=0.6'
p38
F21925.0
sS'a=0.8, g=0.7'
p39
F21910.5
sS'a=0.8, g=0.4'
p40
F22133.0
sS'a=0.8, g=0.5'
p41
F22279.5
sS'a=0.7, g=0.3'
p42
F22122.5
sS'a=0.8, g=0.8'
p43
F21934.5
sS'a=0.8, g=0.9'
p44
F22077.0
sS'a=0.7, g=0.2'
p45
F22060.5
sS'a=0.9, g=0.2'
p46
F22112.0
sS'a=0.7, g=0.7'
p47
F22043.0
sS'a=0.9, g=0.7'
p48
F22100.0
sS'a=0.9, g=0.6'
p49
F22013.0
sS'a=0.9, g=0.1'
p50
F22167.0
sS'a=0.5, g=0.7'
p51
F22273.5
sS'a=0.9, g=0.3'
p52
F22141.0
sS'a=0.8, g=0.3'
p53
F22065.5
sS'a=0.5, g=0.6'
p54
F22173.5
sS'a=0.9, g=0.9'
p55
F20302.5
sS'a=0.9, g=0.8'
p56
F22192.0
sS'a=0.5, g=0.9'
p57
F22166.0
sS'a=0.7, g=0.1'
p58
F22247.0
sS'a=0.4, g=0.7'
p59
F21798.5
sS'a=0.5, g=0.8'
p60
F21956.5
sS'a=0.6, g=0.1'
p61
F21979.0
sS'a=0.4, g=0.5'
p62
F21985.0
sS'a=0.7, g=0.5'
p63
F22052.5
sS'a=0.2, g=0.1'
p64
F22034.0
sS'a=0.2, g=0.2'
p65
F22178.5
sS'a=0.5, g=0.1'
p66
F22080.5
sS'a=0.7, g=0.6'
p67
F22047.5
sS'a=0.5, g=0.3'
p68
F22155.0
sS'a=0.5, g=0.2'
p69
F22118.0
sS'a=0.5, g=0.5'
p70
F22208.0
sS'a=0.5, g=0.4'
p71
F22069.0
sS'a=0.4, g=0.8'
p72
F22036.0
sS'a=0.4, g=0.9'
p73
F21909.5
sS'a=0.4, g=0.6'
p74
F22092.5
sS'a=0.3, g=0.7'
p75
F22108.5
sS'a=0.4, g=0.4'
p76
F22033.5
sS'a=0.4, g=0.1'
p77
F21900.0
sS'a=0.4, g=0.2'
p78
F22099.5
sS'a=0.4, g=0.3'
p79
F22462.5
sS'a=0.7, g=0.9'
p80
F22207.0
sS'a=0.3, g=0.6'
p81
F22141.5
s.