(dp0
S'a=0.9, g=0.5'
p1
I4203
sS'a=0.7, g=0.8'
p2
I4262
sS'a=0.3, g=0.5'
p3
I3991
sS'a=0.9, g=0.4'
p4
I4387
sS'a=0.6, g=0.8'
p5
I4004
sS'a=0.2, g=0.7'
p6
I4018
sS'a=0.3, g=0.3'
p7
I4170
sS'a=0.3, g=0.2'
p8
I3969
sS'a=0.3, g=0.1'
p9
I4007
sS'a=0.2, g=0.3'
p10
I4032
sS'a=0.2, g=0.4'
p11
I4023
sS'a=0.2, g=0.5'
p12
I4168
sS'a=0.2, g=0.6'
p13
I4069
sS'a=0.3, g=0.4'
p14
I4170
sS'a=0.2, g=0.8'
p15
I4218
sS'a=0.2, g=0.9'
p16
I4013
sS'a=0.3, g=0.9'
p17
I4062
sS'a=0.3, g=0.8'
p18
I3905
sS'a=0.6, g=0.4'
p19
I3921
sS'a=0.6, g=0.5'
p20
I4258
sS'a=0.6, g=0.6'
p21
I4310
sS'a=0.6, g=0.7'
p22
I4256
sS'a=0.1, g=0.9'
p23
I3995
sS'a=0.1, g=0.8'
p24
I4281
sS'a=0.6, g=0.2'
p25
I4035
sS'a=0.6, g=0.3'
p26
I4197
sS'a=0.1, g=0.5'
p27
I3953
sS'a=0.1, g=0.4'
p28
I3980
sS'a=0.1, g=0.7'
p29
I4112
sS'a=0.1, g=0.6'
p30
I3904
sS'a=0.1, g=0.1'
p31
I3771
sS'a=0.6, g=0.9'
p32
I4223
sS'a=0.1, g=0.3'
p33
I4162
sS'a=0.1, g=0.2'
p34
I4050
sS'a=0.8, g=0.2'
p35
I4385
sS'a=0.8, g=0.1'
p36
I4055
sS'a=0.7, g=0.4'
p37
I4236
sS'a=0.8, g=0.6'
p38
I3843
sS'a=0.8, g=0.7'
p39
I4212
sS'a=0.8, g=0.4'
p40
I3927
sS'a=0.8, g=0.5'
p41
I4007
sS'a=0.7, g=0.3'
p42
I4192
sS'a=0.8, g=0.8'
p43
I4341
sS'a=0.8, g=0.9'
p44
I4085
sS'a=0.7, g=0.2'
p45
I4382
sS'a=0.9, g=0.2'
p46
I4131
sS'a=0.7, g=0.7'
p47
I4157
sS'a=0.9, g=0.7'
p48
I4116
sS'a=0.9, g=0.6'
p49
I4071
sS'a=0.9, g=0.1'
p50
I4334
sS'a=0.5, g=0.7'
p51
I3951
sS'a=0.9, g=0.3'
p52
I4053
sS'a=0.8, g=0.3'
p53
I4086
sS'a=0.5, g=0.6'
p54
I3854
sS'a=0.9, g=0.9'
p55
I4152
sS'a=0.9, g=0.8'
p56
I3939
sS'a=0.5, g=0.9'
p57
I4129
sS'a=0.7, g=0.1'
p58
I4190
sS'a=0.4, g=0.7'
p59
I4014
sS'a=0.5, g=0.8'
p60
I4162
sS'a=0.6, g=0.1'
p61
I3910
sS'a=0.4, g=0.5'
p62
I3994
sS'a=0.7, g=0.5'
p63
I4003
sS'a=0.2, g=0.1'
p64
I4052
sS'a=0.2, g=0.2'
p65
I3990
sS'a=0.5, g=0.1'
p66
I3943
sS'a=0.7, g=0.6'
p67
I3935
sS'a=0.5, g=0.3'
p68
I4206
sS'a=0.5, g=0.2'
p69
I4322
sS'a=0.5, g=0.5'
p70
I4108
sS'a=0.5, g=0.4'
p71
I3991
sS'a=0.4, g=0.8'
p72
I4053
sS'a=0.4, g=0.9'
p73
I3973
sS'a=0.4, g=0.6'
p74
I3956
sS'a=0.3, g=0.7'
p75
I4013
sS'a=0.4, g=0.4'
p76
I4127
sS'a=0.4, g=0.1'
p77
I4281
sS'a=0.4, g=0.2'
p78
I3908
sS'a=0.4, g=0.3'
p79
I3831
sS'a=0.7, g=0.9'
p80
I3871
sS'a=0.3, g=0.6'
p81
I4145
s.