(dp0
S'a=0.9, g=0.5'
p1
I13383
sS'a=0.7, g=0.8'
p2
I13657
sS'a=0.3, g=0.5'
p3
I14015
sS'a=0.9, g=0.4'
p4
I13432
sS'a=0.6, g=0.8'
p5
I13967
sS'a=0.2, g=0.7'
p6
I13773
sS'a=0.3, g=0.3'
p7
I13774
sS'a=0.3, g=0.2'
p8
I13862
sS'a=0.3, g=0.1'
p9
I13567
sS'a=0.2, g=0.3'
p10
I13218
sS'a=0.2, g=0.4'
p11
I13585
sS'a=0.2, g=0.5'
p12
I13845
sS'a=0.2, g=0.6'
p13
I13395
sS'a=0.3, g=0.4'
p14
I13593
sS'a=0.2, g=0.8'
p15
I13418
sS'a=0.2, g=0.9'
p16
I13677
sS'a=0.3, g=0.9'
p17
I13990
sS'a=0.3, g=0.8'
p18
I13564
sS'a=0.6, g=0.4'
p19
I13822
sS'a=0.6, g=0.5'
p20
I14084
sS'a=0.6, g=0.6'
p21
I14212
sS'a=0.6, g=0.7'
p22
I13639
sS'a=0.1, g=0.9'
p23
I13635
sS'a=0.1, g=0.8'
p24
I13358
sS'a=0.6, g=0.2'
p25
I14020
sS'a=0.6, g=0.3'
p26
I13565
sS'a=0.1, g=0.5'
p27
I13772
sS'a=0.1, g=0.4'
p28
I13554
sS'a=0.1, g=0.7'
p29
I13467
sS'a=0.1, g=0.6'
p30
I13324
sS'a=0.1, g=0.1'
p31
I13427
sS'a=0.6, g=0.9'
p32
I13501
sS'a=0.1, g=0.3'
p33
I13772
sS'a=0.1, g=0.2'
p34
I13966
sS'a=0.8, g=0.2'
p35
I13177
sS'a=0.8, g=0.1'
p36
I13490
sS'a=0.7, g=0.4'
p37
I13290
sS'a=0.8, g=0.6'
p38
I13488
sS'a=0.8, g=0.7'
p39
I13734
sS'a=0.8, g=0.4'
p40
I13395
sS'a=0.8, g=0.5'
p41
I13657
sS'a=0.7, g=0.3'
p42
I13640
sS'a=0.8, g=0.8'
p43
I13515
sS'a=0.8, g=0.9'
p44
I13467
sS'a=0.7, g=0.2'
p45
I13313
sS'a=0.9, g=0.2'
p46
I13831
sS'a=0.7, g=0.7'
p47
I13289
sS'a=0.9, g=0.7'
p48
I13722
sS'a=0.9, g=0.6'
p49
I13492
sS'a=0.9, g=0.1'
p50
I13935
sS'a=0.5, g=0.7'
p51
I13656
sS'a=0.9, g=0.3'
p52
I13568
sS'a=0.8, g=0.3'
p53
I13423
sS'a=0.5, g=0.6'
p54
I13542
sS'a=0.9, g=0.9'
p55
I15406
sS'a=0.9, g=0.8'
p56
I13506
sS'a=0.5, g=0.9'
p57
I13663
sS'a=0.7, g=0.1'
p58
I13430
sS'a=0.4, g=0.7'
p59
I13648
sS'a=0.5, g=0.8'
p60
I13283
sS'a=0.6, g=0.1'
p61
I13259
sS'a=0.4, g=0.5'
p62
I13525
sS'a=0.7, g=0.5'
p63
I13685
sS'a=0.2, g=0.1'
p64
I13479
sS'a=0.2, g=0.2'
p65
I13597
sS'a=0.5, g=0.1'
p66
I13483
sS'a=0.7, g=0.6'
p67
I13933
sS'a=0.5, g=0.3'
p68
I13452
sS'a=0.5, g=0.2'
p69
I13579
sS'a=0.5, g=0.5'
p70
I13873
sS'a=0.5, g=0.4'
p71
I13486
sS'a=0.4, g=0.8'
p72
I13122
sS'a=0.4, g=0.9'
p73
I13682
sS'a=0.4, g=0.6'
p74
I13617
sS'a=0.3, g=0.7'
p75
I13626
sS'a=0.4, g=0.4'
p76
I13762
sS'a=0.4, g=0.1'
p77
I13282
sS'a=0.4, g=0.2'
p78
I13986
sS'a=0.4, g=0.3'
p79
I13410
sS'a=0.7, g=0.9'
p80
I13868
sS'a=0.3, g=0.6'
p81
I13382
s.